; Function Attrs: nounwind uwtable
define hidden i32 @lsarpc_dissect_struct_lsa_TrustDomainInfoInfoEx(ptr noundef %0, i32 noundef %1, ptr noundef %2, ptr noundef %3, ptr noundef %4, ptr noundef %5, i32 noundef %6, i32 %7) local_unnamed_addr #0 {
  %9 = alloca i32, align 4
  %10 = getelementptr inbounds nuw i8, ptr %4, i64 72
  %11 = load ptr, ptr %10, align 8
  %12 = getelementptr inbounds nuw i8, ptr %11, i64 96
  %13 = load i32, ptr %12, align 8
  %14 = and i32 %13, 1
  %.not = icmp eq i32 %14, 0
  %15 = getelementptr inbounds nuw i8, ptr %4, i64 28
  %16 = load i32, ptr %15, align 4
  %.not64 = icmp ne i32 %16, 0
  br i1 %.not, label %22, label %17

17:                                               ; preds = %8
  %18 = and i32 %1, 7
  %.not67 = icmp eq i32 %18, 0
  %or.cond = or i1 %.not67, %.not64
  br i1 %or.cond, label %27, label %19

19:                                               ; preds = %17
  %20 = and i32 %1, -8
  %21 = add i32 %20, 8
  br label %27

22:                                               ; preds = %8
  %23 = and i32 %1, 3
  %.not65 = icmp eq i32 %23, 0
  %or.cond72 = or i1 %.not65, %.not64
  br i1 %or.cond72, label %27, label %24

24:                                               ; preds = %22
  %25 = and i32 %1, -4
  %26 = add i32 %25, 4
  br label %27

27:                                               ; preds = %22, %24, %17, %19
  %.0 = phi i32 [ %1, %17 ], [ %21, %19 ], [ %1, %22 ], [ %26, %24 ]
  %.not68 = icmp eq ptr %3, null
  br i1 %.not68, label %32, label %28

28:                                               ; preds = %27
  %29 = tail call ptr @proto_tree_add_item(ptr noundef nonnull %3, i32 noundef %6, ptr noundef %0, i32 noundef %.0, i32 noundef -1, i32 noundef 0) #5
  %30 = load i32, ptr @ett_lsarpc_lsa_TrustDomainInfoInfoEx, align 4
  %31 = tail call ptr @proto_item_add_subtree(ptr noundef %29, i32 noundef %30) #5
  br label %32

32:                                               ; preds = %28, %27
  %.062 = phi ptr [ %29, %28 ], [ null, %27 ]
  %.061 = phi ptr [ %31, %28 ], [ null, %27 ]
  %33 = load i32, ptr @hf_lsarpc_lsa_TrustDomainInfoInfoEx_domain_name, align 4
  %34 = tail call i32 @lsarpc_dissect_struct_lsa_StringLarge(ptr noundef %0, i32 noundef %.0, ptr noundef %2, ptr noundef %.061, ptr noundef nonnull %4, ptr noundef %5, i32 noundef %33, i32 poison)
  %35 = load i32, ptr @hf_lsarpc_lsa_TrustDomainInfoInfoEx_netbios_name, align 4
  %36 = tail call i32 @lsarpc_dissect_struct_lsa_StringLarge(ptr noundef %0, i32 noundef %34, ptr noundef %2, ptr noundef %.061, ptr noundef nonnull %4, ptr noundef %5, i32 noundef %35, i32 poison)
  %37 = load i32, ptr @hf_lsarpc_lsa_TrustDomainInfoInfoEx_sid, align 4
  %38 = tail call i32 @dissect_ndr_embedded_pointer(ptr noundef %0, i32 noundef %36, ptr noundef %2, ptr noundef %.061, ptr noundef nonnull %4, ptr noundef %5, ptr noundef nonnull @lsarpc_dissect_element_lsa_TrustDomainInfoInfoEx_sid_, i32 noundef 2, ptr noundef nonnull @.str.880, i32 noundef %37) #5
  %39 = load i32, ptr @hf_lsarpc_lsa_TrustDomainInfoInfoEx_trust_direction, align 4
  %40 = tail call i32 @lsarpc_dissect_bitmap_lsa_TrustDirection(ptr noundef %0, i32 noundef %38, ptr noundef %2, ptr noundef %.061, ptr noundef nonnull %4, ptr noundef %5, i32 noundef %39, i32 poison)
  %41 = load i32, ptr @hf_lsarpc_lsa_TrustDomainInfoInfoEx_trust_type, align 4
  call void @llvm.lifetime.start.p0(i64 4, ptr nonnull %9)
  store i32 0, ptr %9, align 4
  %42 = call i32 @dissect_ndr_uint32(ptr noundef %0, i32 noundef %40, ptr noundef %2, ptr noundef %.061, ptr noundef nonnull %4, ptr noundef %5, i32 noundef %41, ptr noundef nonnull %9) #5
  call void @llvm.lifetime.end.p0(i64 4, ptr nonnull %9)
  %43 = load i32, ptr @hf_lsarpc_lsa_TrustDomainInfoInfoEx_trust_attributes, align 4
  %44 = call i32 @lsarpc_dissect_bitmap_lsa_TrustAttributes(ptr noundef %0, i32 noundef %42, ptr noundef %2, ptr noundef %.061, ptr noundef nonnull %4, ptr noundef %5, i32 noundef %43, i32 poison)
  %45 = sub i32 %44, %.0
  call void @proto_item_set_len(ptr noundef %.062, i32 noundef %45) #5
  %46 = load ptr, ptr %10, align 8
  %47 = getelementptr inbounds nuw i8, ptr %46, i64 96
  %48 = load i32, ptr %47, align 8
  %49 = and i32 %48, 1
  %.not69 = icmp eq i32 %49, 0
  br i1 %.not69, label %57, label %50

50:                                               ; preds = %32
  %51 = getelementptr inbounds nuw i8, ptr %4, i64 28
  %52 = load i32, ptr %51, align 4
  %.not70 = icmp ne i32 %52, 0
  %53 = and i32 %44, 7
  %.not71 = icmp eq i32 %53, 0
  %or.cond73 = or i1 %.not71, %.not70
  br i1 %or.cond73, label %57, label %54

54:                                               ; preds = %50
  %55 = and i32 %44, -8
  %56 = add i32 %55, 8
  br label %57

57:                                               ; preds = %54, %50, %32
  %.1 = phi i32 [ %44, %50 ], [ %56, %54 ], [ %44, %32 ]
  ret i32 %.1
}